target datalayout = "e-m:e-p270:32:32-p271:32:32-p272:64:64-i64:64-i128:128-f80:128-n8:16:32:64-S128"
target triple = "x86_64-pc-linux-gnu"

%struct.pmix_value = type { i16, %union.anon }
%union.anon = type { %struct.pmix_envar_t }
%struct.pmix_envar_t = type { ptr, ptr, i8 }
%struct.pmix_info = type { [512 x i8], i32, %struct.pmix_value }

; Function Attrs: inlinehint nounwind uwtable
define internal void @pmix_strncpy(ptr noundef %0, ptr noundef %1, i64 noundef %2) #3 {
  %4 = alloca ptr, align 8
  %5 = alloca ptr, align 8
  %6 = alloca i64, align 8
  %7 = alloca i64, align 8
  store ptr %0, ptr %4, align 8, !tbaa !33
  store ptr %1, ptr %5, align 8, !tbaa !33
  store i64 %2, ptr %6, align 8, !tbaa !25
  call void @llvm.lifetime.start.p0(i64 8, ptr %7) #11
  store i64 0, ptr %7, align 8, !tbaa !25
  br label %8

8:                                                ; preds = %22, %3
  %9 = load i64, ptr %7, align 8, !tbaa !25
  %10 = load i64, ptr %6, align 8, !tbaa !25
  %11 = icmp ult i64 %9, %10
  br i1 %11, label %12, label %29

12:                                               ; preds = %8
  %13 = load ptr, ptr %5, align 8, !tbaa !33
  %14 = load i8, ptr %13, align 1, !tbaa !59
  %15 = load ptr, ptr %4, align 8, !tbaa !33
  store i8 %14, ptr %15, align 1, !tbaa !59
  %16 = load ptr, ptr %5, align 8, !tbaa !33
  %17 = load i8, ptr %16, align 1, !tbaa !59
  %18 = sext i8 %17 to i32
  %19 = icmp eq i32 0, %18
  br i1 %19, label %20, label %21

20:                                               ; preds = %12
  br label %29

21:                                               ; preds = %12
  br label %22

22:                                               ; preds = %21
  %23 = load i64, ptr %7, align 8, !tbaa !25
  %24 = add i64 %23, 1
  store i64 %24, ptr %7, align 8, !tbaa !25
  %25 = load ptr, ptr %5, align 8, !tbaa !33
  %26 = getelementptr inbounds nuw i8, ptr %25, i32 1
  store ptr %26, ptr %5, align 8, !tbaa !33
  %27 = load ptr, ptr %4, align 8, !tbaa !33
  %28 = getelementptr inbounds nuw i8, ptr %27, i32 1
  store ptr %28, ptr %4, align 8, !tbaa !33
  br label %8, !llvm.loop !60

29:                                               ; preds = %20, %8
  %30 = load ptr, ptr %4, align 8, !tbaa !33
  store i8 0, ptr %30, align 1, !tbaa !59
  call void @llvm.lifetime.end.p0(i64 8, ptr %7) #11
  ret void
}

; Function Attrs: nounwind uwtable
define i32 @pmix_bfrops_base_copy_info(ptr noundef %0, ptr noundef %1, i16 noundef zeroext %2) #0 {
  %4 = alloca ptr, align 8
  %5 = alloca ptr, align 8
  %6 = alloca i16, align 2
  store ptr %0, ptr %4, align 8, !tbaa !53
  store ptr %1, ptr %5, align 8, !tbaa !55
  store i16 %2, ptr %6, align 2, !tbaa !9
  %7 = call noalias ptr @malloc(i64 noundef 552) #12
  %8 = load ptr, ptr %4, align 8, !tbaa !53
  store ptr %7, ptr %8, align 8, !tbaa !55
  %9 = load ptr, ptr %4, align 8, !tbaa !53
  %10 = load ptr, ptr %9, align 8, !tbaa !55
  %11 = getelementptr inbounds nuw %struct.pmix_info, ptr %10, i32 0, i32 0
  %12 = getelementptr inbounds [512 x i8], ptr %11, i64 0, i64 0
  %13 = load ptr, ptr %5, align 8, !tbaa !55
  %14 = getelementptr inbounds nuw %struct.pmix_info, ptr %13, i32 0, i32 0
  %15 = getelementptr inbounds [512 x i8], ptr %14, i64 0, i64 0
  call void @pmix_strncpy(ptr noundef %12, ptr noundef %15, i64 noundef 511)
  %16 = load ptr, ptr %5, align 8, !tbaa !55
  %17 = getelementptr inbounds nuw %struct.pmix_info, ptr %16, i32 0, i32 1
  %18 = load i32, ptr %17, align 8, !tbaa !57
  %19 = load ptr, ptr %4, align 8, !tbaa !53
  %20 = load ptr, ptr %19, align 8, !tbaa !55
  %21 = getelementptr inbounds nuw %struct.pmix_info, ptr %20, i32 0, i32 1
  store i32 %18, ptr %21, align 8, !tbaa !57
  %22 = load ptr, ptr %4, align 8, !tbaa !53
  %23 = load ptr, ptr %22, align 8, !tbaa !55
  %24 = getelementptr inbounds nuw %struct.pmix_info, ptr %23, i32 0, i32 2
  %25 = load ptr, ptr %5, align 8, !tbaa !55
  %26 = getelementptr inbounds nuw %struct.pmix_info, ptr %25, i32 0, i32 2
  %27 = call i32 @pmix_bfrops_base_value_xfer(ptr noundef %24, ptr noundef %26)
  ret i32 %27
}