; Function Attrs: nounwind uwtable
define i32 @pmix_bfrops_base_copy_info(ptr noundef captures(none) initializes((0, 8)) %0, ptr noundef %1, i16 noundef zeroext %2) local_unnamed_addr #0 {
  %4 = tail call noalias dereferenceable_or_null(552) ptr @malloc(i64 noundef 552) #25
  store ptr %4, ptr %0, align 8, !tbaa !46
  br label %5

5:                                                ; preds = %8, %3
  %.012.i = phi i64 [ 0, %3 ], [ %9, %8 ]
  %.0811.i = phi ptr [ %4, %3 ], [ %11, %8 ]
  %.0910.i = phi ptr [ %1, %3 ], [ %10, %8 ]
  %6 = load i8, ptr %.0910.i, align 1, !tbaa !48
  store i8 %6, ptr %.0811.i, align 1, !tbaa !48
  %7 = icmp eq i8 %6, 0
  br i1 %7, label %pmix_strncpy.exit, label %8

8:                                                ; preds = %5
  %9 = add nuw nsw i64 %.012.i, 1
  %10 = getelementptr inbounds nuw i8, ptr %.0910.i, i64 1
  %11 = getelementptr inbounds nuw i8, ptr %.0811.i, i64 1
  %exitcond.not.i = icmp eq i64 %9, 511
  br i1 %exitcond.not.i, label %pmix_strncpy.exit, label %5, !llvm.loop !49

pmix_strncpy.exit:                                ; preds = %5, %8
  %.08.lcssa.i = phi ptr [ %.0811.i, %5 ], [ %11, %8 ]
  store i8 0, ptr %.08.lcssa.i, align 1, !tbaa !48
  %12 = getelementptr inbounds nuw i8, ptr %1, i64 512
  %13 = load i32, ptr %12, align 8, !tbaa !50
  %14 = load ptr, ptr %0, align 8, !tbaa !46
  %15 = getelementptr inbounds nuw i8, ptr %14, i64 512
  store i32 %13, ptr %15, align 8, !tbaa !50
  %16 = getelementptr inbounds nuw i8, ptr %14, i64 520
  %17 = getelementptr inbounds nuw i8, ptr %1, i64 520
  %18 = tail call i32 @pmix_bfrops_base_value_xfer(ptr noundef nonnull %16, ptr noundef nonnull %17) #23
  ret i32 %18
}